target datalayout = "e-m:e-p270:32:32-p271:32:32-p272:64:64-i64:64-i128:128-f80:128-n8:16:32:64-S128"
target triple = "x86_64-pc-linux-gnu"

%struct.FunctionCallInfoBaseData = type { ptr, ptr, ptr, i32, i8, i16, [0 x %struct.NullableDatum] }
%struct.NullableDatum = type { i64, i8 }
%struct.Node = type { i32 }
%struct.ReturnSetInfo = type { i32, ptr, ptr, i32, i32, i32, ptr, ptr }
%struct.FmgrInfo = type { ptr, i32, i16, i8, i8, i8, ptr, ptr, ptr }
%struct.FuncCallContext = type { i64, i64, ptr, ptr, ptr, ptr }

@.str = private unnamed_addr constant [63 x i8] c"set-valued function called in context that cannot accept a set\00", align 1
@.str.1 = private unnamed_addr constant [10 x i8] c"funcapi.c\00", align 1
@__func__.init_MultiFuncCall = private unnamed_addr constant [19 x i8] c"init_MultiFuncCall\00", align 1
@.str.4 = private unnamed_addr constant [23 x i8] c"SRF multi-call context\00", align 1
@.str.5 = private unnamed_addr constant [51 x i8] c"init_MultiFuncCall cannot be called more than once\00", align 1

; Function Attrs: inlinehint nounwind uwtable
define internal i64 @PointerGetDatum(ptr noundef %0) #4 {
  %2 = alloca ptr, align 8
  store ptr %0, ptr %2, align 8
  %3 = load ptr, ptr %2, align 8
  %4 = ptrtoint ptr %3 to i64
  ret i64 %4
}

; Function Attrs: nounwind uwtable
define dso_local ptr @init_MultiFuncCall(ptr noundef %0) #0 {
  %2 = alloca ptr, align 8
  %3 = alloca ptr, align 8
  %4 = alloca ptr, align 8
  %5 = alloca ptr, align 8
  %6 = alloca i32, align 4
  store ptr %0, ptr %2, align 8
  call void @llvm.lifetime.start.p0(i64 8, ptr %3) #7
  %7 = load ptr, ptr %2, align 8
  %8 = getelementptr inbounds nuw %struct.FunctionCallInfoBaseData, ptr %7, i32 0, i32 2
  %9 = load ptr, ptr %8, align 8
  %10 = icmp eq ptr %9, null
  br i1 %10, label %18, label %11

11:                                               ; preds = %1
  %12 = load ptr, ptr %2, align 8
  %13 = getelementptr inbounds nuw %struct.FunctionCallInfoBaseData, ptr %12, i32 0, i32 2
  %14 = load ptr, ptr %13, align 8
  %15 = getelementptr inbounds nuw %struct.Node, ptr %14, i32 0, i32 0
  %16 = load i32, ptr %15, align 4
  %17 = icmp eq i32 %16, 382
  br i1 %17, label %30, label %18

18:                                               ; preds = %11, %1
  br label %19

19:                                               ; preds = %18
  br i1 true, label %20, label %22

20:                                               ; preds = %19
  %21 = call zeroext i1 @errstart_cold(i32 noundef 21, ptr noundef null) #8
  br i1 %21, label %24, label %27

22:                                               ; preds = %19
  %23 = call zeroext i1 @errstart(i32 noundef 21, ptr noundef null)
  br i1 %23, label %24, label %27

24:                                               ; preds = %22, %20
  %25 = call i32 @errcode(i32 noundef 1088)
  %26 = call i32 (ptr, ...) @errmsg(ptr noundef @.str)
  call void @errfinish(ptr noundef @.str.1, i32 noundef 143, ptr noundef @__func__.init_MultiFuncCall)
  br label %27

27:                                               ; preds = %24, %22, %20
  unreachable

28:                                               ; No predecessors!
  br label %29

29:                                               ; preds = %28
  br label %30

30:                                               ; preds = %29, %11
  %31 = load ptr, ptr %2, align 8
  %32 = getelementptr inbounds nuw %struct.FunctionCallInfoBaseData, ptr %31, i32 0, i32 0
  %33 = load ptr, ptr %32, align 8
  %34 = getelementptr inbounds nuw %struct.FmgrInfo, ptr %33, i32 0, i32 6
  %35 = load ptr, ptr %34, align 8
  %36 = icmp eq ptr %35, null
  br i1 %36, label %37, label %77

37:                                               ; preds = %30
  call void @llvm.lifetime.start.p0(i64 8, ptr %4) #7
  %38 = load ptr, ptr %2, align 8
  %39 = getelementptr inbounds nuw %struct.FunctionCallInfoBaseData, ptr %38, i32 0, i32 2
  %40 = load ptr, ptr %39, align 8
  store ptr %40, ptr %4, align 8
  call void @llvm.lifetime.start.p0(i64 8, ptr %5) #7
  br label %41

41:                                               ; preds = %37
  br label %42

42:                                               ; preds = %41
  br label %43

43:                                               ; preds = %42
  store i32 1, ptr %6, align 4
  %44 = load ptr, ptr %2, align 8
  %45 = getelementptr inbounds nuw %struct.FunctionCallInfoBaseData, ptr %44, i32 0, i32 0
  %46 = load ptr, ptr %45, align 8
  %47 = getelementptr inbounds nuw %struct.FmgrInfo, ptr %46, i32 0, i32 7
  %48 = load ptr, ptr %47, align 8
  %49 = call ptr @AllocSetContextCreateInternal(ptr noundef %48, ptr noundef @.str.4, i64 noundef 0, i64 noundef 1024, i64 noundef 8192)
  store ptr %49, ptr %5, align 8
  %50 = load ptr, ptr %5, align 8
  %51 = call ptr @MemoryContextAllocZero(ptr noundef %50, i64 noundef 48)
  store ptr %51, ptr %3, align 8
  %52 = load ptr, ptr %3, align 8
  %53 = getelementptr inbounds nuw %struct.FuncCallContext, ptr %52, i32 0, i32 0
  store i64 0, ptr %53, align 8
  %54 = load ptr, ptr %3, align 8
  %55 = getelementptr inbounds nuw %struct.FuncCallContext, ptr %54, i32 0, i32 1
  store i64 0, ptr %55, align 8
  %56 = load ptr, ptr %3, align 8
  %57 = getelementptr inbounds nuw %struct.FuncCallContext, ptr %56, i32 0, i32 2
  store ptr null, ptr %57, align 8
  %58 = load ptr, ptr %3, align 8
  %59 = getelementptr inbounds nuw %struct.FuncCallContext, ptr %58, i32 0, i32 3
  store ptr null, ptr %59, align 8
  %60 = load ptr, ptr %3, align 8
  %61 = getelementptr inbounds nuw %struct.FuncCallContext, ptr %60, i32 0, i32 5
  store ptr null, ptr %61, align 8
  %62 = load ptr, ptr %5, align 8
  %63 = load ptr, ptr %3, align 8
  %64 = getelementptr inbounds nuw %struct.FuncCallContext, ptr %63, i32 0, i32 4
  store ptr %62, ptr %64, align 8
  %65 = load ptr, ptr %3, align 8
  %66 = load ptr, ptr %2, align 8
  %67 = getelementptr inbounds nuw %struct.FunctionCallInfoBaseData, ptr %66, i32 0, i32 0
  %68 = load ptr, ptr %67, align 8
  %69 = getelementptr inbounds nuw %struct.FmgrInfo, ptr %68, i32 0, i32 6
  store ptr %65, ptr %69, align 8
  %70 = load ptr, ptr %4, align 8
  %71 = getelementptr inbounds nuw %struct.ReturnSetInfo, ptr %70, i32 0, i32 1
  %72 = load ptr, ptr %71, align 8
  %73 = load ptr, ptr %2, align 8
  %74 = getelementptr inbounds nuw %struct.FunctionCallInfoBaseData, ptr %73, i32 0, i32 0
  %75 = load ptr, ptr %74, align 8
  %76 = call i64 @PointerGetDatum(ptr noundef %75)
  call void @RegisterExprContextCallback(ptr noundef %72, ptr noundef @shutdown_MultiFuncCall, i64 noundef %76)
  call void @llvm.lifetime.end.p0(i64 8, ptr %5) #7
  call void @llvm.lifetime.end.p0(i64 8, ptr %4) #7
  br label %88

77:                                               ; preds = %30
  br label %78

78:                                               ; preds = %77
  br i1 true, label %79, label %81

79:                                               ; preds = %78
  %80 = call zeroext i1 @errstart_cold(i32 noundef 21, ptr noundef null) #8
  br i1 %80, label %83, label %85

81:                                               ; preds = %78
  %82 = call zeroext i1 @errstart(i32 noundef 21, ptr noundef null)
  br i1 %82, label %83, label %85

83:                                               ; preds = %81, %79
  %84 = call i32 (ptr, ...) @errmsg_internal(ptr noundef @.str.5)
  call void @errfinish(ptr noundef @.str.1, i32 noundef 193, ptr noundef @__func__.init_MultiFuncCall)
  br label %85

85:                                               ; preds = %83, %81, %79
  unreachable

86:                                               ; No predecessors!
  br label %87

87:                                               ; preds = %86
  store ptr null, ptr %3, align 8
  br label %88

88:                                               ; preds = %87, %43
  %89 = load ptr, ptr %3, align 8
  call void @llvm.lifetime.end.p0(i64 8, ptr %3) #7
  ret ptr %89
}