; Function Attrs: nounwind uwtable
define dso_local noundef ptr @init_MultiFuncCall(ptr noundef readonly captures(none) %0) local_unnamed_addr #0 {
  %2 = getelementptr inbounds nuw i8, ptr %0, i64 16
  %3 = load ptr, ptr %2, align 8
  %4 = icmp eq ptr %3, null
  br i1 %4, label %8, label %5

5:                                                ; preds = %1
  %6 = load i32, ptr %3, align 4
  %7 = icmp eq i32 %6, 382
  br i1 %7, label %12, label %8

8:                                                ; preds = %5, %1
  %9 = tail call zeroext i1 @errstart_cold(i32 noundef 21, ptr noundef null) #9
  tail call void @llvm.assume(i1 %9)
  %10 = tail call i32 @errcode(i32 noundef 1088) #8
  %11 = tail call i32 (ptr, ...) @errmsg(ptr noundef nonnull @.str) #8
  tail call void @errfinish(ptr noundef nonnull @.str.1, i32 noundef 143, ptr noundef nonnull @__func__.init_MultiFuncCall) #8
  unreachable

12:                                               ; preds = %5
  %13 = load ptr, ptr %0, align 8
  %14 = getelementptr inbounds nuw i8, ptr %13, i64 24
  %15 = load ptr, ptr %14, align 8
  %16 = icmp eq ptr %15, null
  br i1 %16, label %17, label %30

17:                                               ; preds = %12
  %18 = getelementptr inbounds nuw i8, ptr %13, i64 32
  %19 = load ptr, ptr %18, align 8
  %20 = tail call ptr @AllocSetContextCreateInternal(ptr noundef %19, ptr noundef nonnull @.str.4, i64 noundef 0, i64 noundef 1024, i64 noundef 8192) #8
  %21 = tail call ptr @MemoryContextAllocZero(ptr noundef %20, i64 noundef 48) #8
  %22 = getelementptr inbounds nuw i8, ptr %21, i64 40
  store ptr null, ptr %22, align 8
  %23 = getelementptr inbounds nuw i8, ptr %21, i64 32
  tail call void @llvm.memset.p0.i64(ptr noundef nonnull align 8 dereferenceable(32) %21, i8 0, i64 32, i1 false)
  store ptr %20, ptr %23, align 8
  %24 = load ptr, ptr %0, align 8
  %25 = getelementptr inbounds nuw i8, ptr %24, i64 24
  store ptr %21, ptr %25, align 8
  %26 = getelementptr inbounds nuw i8, ptr %3, i64 8
  %27 = load ptr, ptr %26, align 8
  %28 = load ptr, ptr %0, align 8
  %29 = ptrtoint ptr %28 to i64
  tail call void @RegisterExprContextCallback(ptr noundef %27, ptr noundef nonnull @shutdown_MultiFuncCall, i64 noundef %29) #8
  ret ptr %21

30:                                               ; preds = %12
  %31 = tail call zeroext i1 @errstart_cold(i32 noundef 21, ptr noundef null) #9
  tail call void @llvm.assume(i1 %31)
  %32 = tail call i32 (ptr, ...) @errmsg_internal(ptr noundef nonnull @.str.5) #8
  tail call void @errfinish(ptr noundef nonnull @.str.1, i32 noundef 193, ptr noundef nonnull @__func__.init_MultiFuncCall) #8
  unreachable
}